; ModuleID = 'bench/grpc/original/resolver.cc.ll'
source_filename = "bench/grpc/original/resolver.cc.ll"
target datalayout = "e-m:e-p270:32:32-p271:32:32-p272:64:64-i64:64-i128:128-f80:128-n8:16:32:64-S128"
target triple = "x86_64-unknown-linux-gnu"

%"class.std::ios_base::Init" = type { i8 }
%"class.grpc_core::DebugOnlyTraceFlag" = type { i8 }

$_ZN9grpc_core8Resolver6OrphanEv = comdat any

$_ZN9grpc_core8ResolverD2Ev = comdat any

$_ZN9grpc_core8ResolverD0Ev = comdat any

$_ZN9grpc_core8Resolver25RequestReresolutionLockedEv = comdat any

$_ZN9grpc_core8Resolver18ResetBackoffLockedEv = comdat any

$_ZTVN9grpc_core8ResolverE = comdat any

$_ZTSN9grpc_core8ResolverE = comdat any

$_ZTSN9grpc_core20InternallyRefCountedINS_8ResolverENS_11UnrefDeleteEEE = comdat any

$_ZTSN9grpc_core10OrphanableE = comdat any

$_ZTIN9grpc_core10OrphanableE = comdat any

$_ZTIN9grpc_core20InternallyRefCountedINS_8ResolverENS_11UnrefDeleteEEE = comdat any

$_ZTIN9grpc_core8ResolverE = comdat any

@_ZStL8__ioinit = internal global %"class.std::ios_base::Init" zeroinitializer, align 1
@__dso_handle = external hidden global i8
@grpc_trace_resolver_refcount = local_unnamed_addr global %"class.grpc_core::DebugOnlyTraceFlag" undef, align 1
@_ZTVN9grpc_core8ResolverE = linkonce_odr unnamed_addr constant { [9 x ptr] } { [9 x ptr] [ptr null, ptr @_ZTIN9grpc_core8ResolverE, ptr @_ZN9grpc_core8Resolver6OrphanEv, ptr @_ZN9grpc_core8ResolverD2Ev, ptr @_ZN9grpc_core8ResolverD0Ev, ptr @__cxa_pure_virtual, ptr @_ZN9grpc_core8Resolver25RequestReresolutionLockedEv, ptr @_ZN9grpc_core8Resolver18ResetBackoffLockedEv, ptr @__cxa_pure_virtual] }, comdat, align 8
@_ZTVN10__cxxabiv120__si_class_type_infoE = external global [0 x ptr]
@_ZTSN9grpc_core8ResolverE = linkonce_odr constant [22 x i8] c"N9grpc_core8ResolverE\00", comdat, align 1
@_ZTSN9grpc_core20InternallyRefCountedINS_8ResolverENS_11UnrefDeleteEEE = linkonce_odr constant [67 x i8] c"N9grpc_core20InternallyRefCountedINS_8ResolverENS_11UnrefDeleteEEE\00", comdat, align 1
@_ZTVN10__cxxabiv117__class_type_infoE = external global [0 x ptr]
@_ZTSN9grpc_core10OrphanableE = linkonce_odr constant [25 x i8] c"N9grpc_core10OrphanableE\00", comdat, align 1
@_ZTIN9grpc_core10OrphanableE = linkonce_odr constant { ptr, ptr } { ptr getelementptr inbounds (ptr, ptr @_ZTVN10__cxxabiv117__class_type_infoE, i64 2), ptr @_ZTSN9grpc_core10OrphanableE }, comdat, align 8
@_ZTIN9grpc_core20InternallyRefCountedINS_8ResolverENS_11UnrefDeleteEEE = linkonce_odr constant { ptr, ptr, ptr } { ptr getelementptr inbounds (ptr, ptr @_ZTVN10__cxxabiv120__si_class_type_infoE, i64 2), ptr @_ZTSN9grpc_core20InternallyRefCountedINS_8ResolverENS_11UnrefDeleteEEE, ptr @_ZTIN9grpc_core10OrphanableE }, comdat, align 8
@_ZTIN9grpc_core8ResolverE = linkonce_odr constant { ptr, ptr, ptr } { ptr getelementptr inbounds (ptr, ptr @_ZTVN10__cxxabiv120__si_class_type_infoE, i64 2), ptr @_ZTSN9grpc_core8ResolverE, ptr @_ZTIN9grpc_core20InternallyRefCountedINS_8ResolverENS_11UnrefDeleteEEE }, comdat, align 8
@llvm.global_ctors = appending global [1 x { i32, ptr, ptr }] [{ i32, ptr, ptr } { i32 65535, ptr @_GLOBAL__sub_I_resolver.cc, ptr null }]

declare void @_ZNSt8ios_base4InitC1Ev(ptr noundef nonnull align 1 dereferenceable(1)) unnamed_addr #0

; Function Attrs: nounwind
declare void @_ZNSt8ios_base4InitD1Ev(ptr noundef nonnull align 1 dereferenceable(1)) unnamed_addr #1

; Function Attrs: nofree nounwind
declare i32 @__cxa_atexit(ptr, ptr, ptr) local_unnamed_addr #2

; Function Attrs: mustprogress nofree norecurse nosync nounwind willreturn memory(argmem: write) uwtable
define void @_ZN9grpc_core8ResolverC2Ev(ptr nocapture noundef nonnull writeonly align 8 dereferenceable(16) %this) unnamed_addr #3 align 2 personality ptr @__gxx_personality_v0 {
entry:
  %refs_.i = getelementptr inbounds i8, ptr %this, i64 8
  store i64 1, ptr %refs_.i, align 8
  store ptr getelementptr inbounds ({ [9 x ptr] }, ptr @_ZTVN9grpc_core8ResolverE, i64 0, i32 0, i64 2), ptr %this, align 8
  ret void
}

; Function Attrs: mustprogress uwtable
define linkonce_odr void @_ZN9grpc_core8Resolver6OrphanEv(ptr noundef nonnull align 8 dereferenceable(16) %this) unnamed_addr #4 comdat align 2 {
entry:
  %vtable = load ptr, ptr %this, align 8
  %vfn = getelementptr inbounds i8, ptr %vtable, i64 48
  %0 = load ptr, ptr %vfn, align 8
  tail call void %0(ptr noundef nonnull align 8 dereferenceable(16) %this)
  %refs_.i = getelementptr inbounds i8, ptr %this, i64 8
  %1 = atomicrmw sub ptr %refs_.i, i64 1 acq_rel, align 8
  %cmp.i.i = icmp eq i64 %1, 1
  br i1 %cmp.i.i, label %if.then.i, label %_ZN9grpc_core20InternallyRefCountedINS_8ResolverENS_11UnrefDeleteEE5UnrefEv.exit

if.then.i:                                        ; preds = %entry
  %vtable.i.i = load ptr, ptr %this, align 8
  %vfn.i.i = getelementptr inbounds i8, ptr %vtable.i.i, i64 16
  %2 = load ptr, ptr %vfn.i.i, align 8
  tail call void %2(ptr noundef nonnull align 8 dereferenceable(16) %this) #8
  br label %_ZN9grpc_core20InternallyRefCountedINS_8ResolverENS_11UnrefDeleteEE5UnrefEv.exit

_ZN9grpc_core20InternallyRefCountedINS_8ResolverENS_11UnrefDeleteEE5UnrefEv.exit: ; preds = %entry, %if.then.i
  ret void
}

; Function Attrs: mustprogress nounwind uwtable
define linkonce_odr void @_ZN9grpc_core8ResolverD2Ev(ptr noundef nonnull align 8 dereferenceable(16) %this) unnamed_addr #5 comdat align 2 {
entry:
  ret void
}

; Function Attrs: mustprogress nounwind uwtable
define linkonce_odr void @_ZN9grpc_core8ResolverD0Ev(ptr noundef nonnull align 8 dereferenceable(16) %this) unnamed_addr #5 comdat align 2 {
entry:
  tail call void @llvm.trap() #9
  unreachable
}

declare void @__cxa_pure_virtual() unnamed_addr

; Function Attrs: mustprogress nounwind uwtable
define linkonce_odr void @_ZN9grpc_core8Resolver25RequestReresolutionLockedEv(ptr noundef nonnull align 8 dereferenceable(16) %this) unnamed_addr #5 comdat align 2 {
entry:
  ret void
}

; Function Attrs: mustprogress nounwind uwtable
define linkonce_odr void @_ZN9grpc_core8Resolver18ResetBackoffLockedEv(ptr noundef nonnull align 8 dereferenceable(16) %this) unnamed_addr #5 comdat align 2 {
entry:
  ret void
}

declare i32 @__gxx_personality_v0(...)

; Function Attrs: cold noreturn nounwind memory(inaccessiblemem: write)
declare void @llvm.trap() #6

; Function Attrs: uwtable
define internal void @_GLOBAL__sub_I_resolver.cc() #7 section ".text.startup" {
entry:
  tail call void @_ZNSt8ios_base4InitC1Ev(ptr noundef nonnull align 1 dereferenceable(1) @_ZStL8__ioinit)
  %0 = tail call i32 @__cxa_atexit(ptr nonnull @_ZNSt8ios_base4InitD1Ev, ptr nonnull @_ZStL8__ioinit, ptr nonnull @__dso_handle) #8
  ret void
}


!llvm.module.flags = !{!0, !1, !2, !3}

!0 = !{i32 1, !"wchar_size", i32 4}
!1 = !{i32 8, !"PIC Level", i32 2}
!2 = !{i32 7, !"uwtable", i32 2}
!3 = !{i32 7, !"frame-pointer", i32 2}
